target datalayout = "e-m:e-p270:32:32-p271:32:32-p272:64:64-i64:64-i128:128-f80:128-n8:16:32:64-S128"
target triple = "x86_64-pc-linux-gnu"

%struct.SlabContext = type { %struct.MemoryContextData, i32, i32, i32, i32, i32, i32, %struct.dclist_head, [3 x %struct.dlist_head] }
%struct.MemoryContextData = type { i32, i8, i8, i64, ptr, ptr, ptr, ptr, ptr, ptr, ptr, ptr }
%struct.dclist_head = type { %struct.dlist_head, i32 }
%struct.dlist_head = type { %struct.dlist_node }
%struct.dlist_node = type { ptr, ptr }

@.str.1 = private unnamed_addr constant [7 x i8] c"slab.c\00", align 1
@.str.7 = private unnamed_addr constant [46 x i8] c"unexpected alloc chunk size %zu (expected %u)\00", align 1
@__func__.SlabAllocInvalidSize = private unnamed_addr constant [21 x i8] c"SlabAllocInvalidSize\00", align 1

; Function Attrs: noinline noreturn nounwind uwtable
define internal void @SlabAllocInvalidSize(ptr noundef %0, i64 noundef %1) #8 {
  %3 = alloca ptr, align 8
  %4 = alloca i64, align 8
  %5 = alloca ptr, align 8
  store ptr %0, ptr %3, align 8
  store i64 %1, ptr %4, align 8
  call void @llvm.lifetime.start.p0(i64 8, ptr %5) #10
  %6 = load ptr, ptr %3, align 8
  store ptr %6, ptr %5, align 8
  br label %7

7:                                                ; preds = %2
  br i1 true, label %8, label %10

8:                                                ; preds = %7
  %9 = call zeroext i1 @errstart_cold(i32 noundef 21, ptr noundef null) #11
  br i1 %9, label %12, label %18

10:                                               ; preds = %7
  %11 = call zeroext i1 @errstart(i32 noundef 21, ptr noundef null)
  br i1 %11, label %12, label %18

12:                                               ; preds = %10, %8
  %13 = load i64, ptr %4, align 8
  %14 = load ptr, ptr %5, align 8
  %15 = getelementptr inbounds nuw %struct.SlabContext, ptr %14, i32 0, i32 1
  %16 = load i32, ptr %15, align 8
  %17 = call i32 (ptr, ...) @errmsg_internal(ptr noundef @.str.7, i64 noundef %13, i32 noundef %16)
  call void @errfinish(ptr noundef @.str.1, i32 noundef 611, ptr noundef @__func__.SlabAllocInvalidSize)
  br label %18

18:                                               ; preds = %12, %10, %8
  unreachable

19:                                               ; No predecessors!
  br label %20

20:                                               ; preds = %19
  call void @llvm.lifetime.end.p0(i64 8, ptr %5) #10
  unreachable
}