; Function Attrs: cold noinline noreturn nounwind uwtable
define internal fastcc void @SlabAllocInvalidSize(ptr noundef readonly captures(none) %0, i64 noundef %1) unnamed_addr #6 {
  %3 = tail call zeroext i1 @errstart_cold(i32 noundef 21, ptr noundef null) #12
  tail call void @llvm.assume(i1 %3)
  %4 = getelementptr inbounds nuw i8, ptr %0, i64 80
  %5 = load i32, ptr %4, align 8
  %6 = tail call i32 (ptr, ...) @errmsg_internal(ptr noundef nonnull @.str.7, i64 noundef %1, i32 noundef %5) #13
  tail call void @errfinish(ptr noundef nonnull @.str.1, i32 noundef 611, ptr noundef nonnull @__func__.SlabAllocInvalidSize) #13
  unreachable
}